; Function Attrs: nounwind uwtable
define internal noundef i32 @phpdbg_create_simple_watchpoint(ptr noundef %0, ptr noundef %1) #0 {
  %3 = alloca %struct._phpdbg_watchpoint_t, align 8
  %4 = getelementptr inbounds i8, ptr %1, i64 16
  store i8 1, ptr %4, align 8
  call void @llvm.lifetime.start.p0(i64 152, ptr nonnull %3)
  store ptr %0, ptr %3, align 8
  %5 = getelementptr inbounds i8, ptr %3, i64 8
  store i64 32, ptr %5, align 8
  %6 = getelementptr inbounds i8, ptr %3, i64 24
  store ptr null, ptr %6, align 8
  %7 = getelementptr inbounds i8, ptr %3, i64 88
  store ptr null, ptr %7, align 8
  %8 = getelementptr inbounds i8, ptr %3, i64 32
  call void @_zend_hash_init(ptr noundef nonnull %8, i32 noundef 8, ptr noundef null, i1 noundef zeroext false) #17
  %9 = getelementptr inbounds i8, ptr %3, i64 16
  store i32 5, ptr %9, align 8
  %10 = call ptr @phpdbg_add_watch_element(ptr noundef nonnull %3, ptr noundef %1)
  call void @phpdbg_watch_parent_ht(ptr noundef %10)
  call void @llvm.lifetime.end.p0(i64 152, ptr nonnull %3)
  ret i32 0
}